target datalayout = "e-m:e-p270:32:32-p271:32:32-p272:64:64-i64:64-i128:128-f80:128-n8:16:32:64-S128"
target triple = "x86_64-pc-linux-gnu"

%struct.ItemPointerData = type { %struct.BlockIdData, i16 }
%struct.BlockIdData = type { i16, i16 }
%struct.TM_FailureData = type { %struct.ItemPointerData, i32, i32, i8 }

@.str.1 = private unnamed_addr constant [9 x i8] c"heapam.c\00", align 1
@.str.5 = private unnamed_addr constant [30 x i8] c"tuple already updated by self\00", align 1
@__func__.simple_heap_delete = private unnamed_addr constant [19 x i8] c"simple_heap_delete\00", align 1
@.str.6 = private unnamed_addr constant [27 x i8] c"tuple concurrently updated\00", align 1
@.str.7 = private unnamed_addr constant [27 x i8] c"tuple concurrently deleted\00", align 1
@.str.8 = private unnamed_addr constant [36 x i8] c"unrecognized heap_delete status: %u\00", align 1

; Function Attrs: nounwind uwtable
define dso_local void @simple_heap_delete(ptr noundef %0, ptr noundef %1) #0 {
  %3 = alloca ptr, align 8
  %4 = alloca ptr, align 8
  %5 = alloca i32, align 4
  %6 = alloca %struct.TM_FailureData, align 4
  store ptr %0, ptr %3, align 8
  store ptr %1, ptr %4, align 8
  call void @llvm.lifetime.start.p0(i64 4, ptr %5) #10
  call void @llvm.lifetime.start.p0(i64 20, ptr %6) #10
  %7 = load ptr, ptr %3, align 8
  %8 = load ptr, ptr %4, align 8
  %9 = call i32 @GetCurrentCommandId(i1 noundef zeroext true)
  %10 = call i32 @heap_delete(ptr noundef %7, ptr noundef %8, i32 noundef %9, ptr noundef null, i1 noundef zeroext true, ptr noundef %6, i1 noundef zeroext false)
  store i32 %10, ptr %5, align 4
  %11 = load i32, ptr %5, align 4
  switch i32 %11, label %45 [
    i32 2, label %12
    i32 0, label %57
    i32 3, label %23
    i32 4, label %34
  ]

12:                                               ; preds = %2
  br label %13

13:                                               ; preds = %12
  br i1 true, label %14, label %16

14:                                               ; preds = %13
  %15 = call zeroext i1 @errstart_cold(i32 noundef 21, ptr noundef null) #11
  br i1 %15, label %18, label %20

16:                                               ; preds = %13
  %17 = call zeroext i1 @errstart(i32 noundef 21, ptr noundef null)
  br i1 %17, label %18, label %20

18:                                               ; preds = %16, %14
  %19 = call i32 (ptr, ...) @errmsg_internal(ptr noundef @.str.5)
  call void @errfinish(ptr noundef @.str.1, i32 noundef 3131, ptr noundef @__func__.simple_heap_delete)
  br label %20

20:                                               ; preds = %18, %16, %14
  unreachable

21:                                               ; No predecessors!
  br label %22

22:                                               ; preds = %21
  br label %57

23:                                               ; preds = %2
  br label %24

24:                                               ; preds = %23
  br i1 true, label %25, label %27

25:                                               ; preds = %24
  %26 = call zeroext i1 @errstart_cold(i32 noundef 21, ptr noundef null) #11
  br i1 %26, label %29, label %31

27:                                               ; preds = %24
  %28 = call zeroext i1 @errstart(i32 noundef 21, ptr noundef null)
  br i1 %28, label %29, label %31

29:                                               ; preds = %27, %25
  %30 = call i32 (ptr, ...) @errmsg_internal(ptr noundef @.str.6)
  call void @errfinish(ptr noundef @.str.1, i32 noundef 3139, ptr noundef @__func__.simple_heap_delete)
  br label %31

31:                                               ; preds = %29, %27, %25
  unreachable

32:                                               ; No predecessors!
  br label %33

33:                                               ; preds = %32
  br label %57

34:                                               ; preds = %2
  br label %35

35:                                               ; preds = %34
  br i1 true, label %36, label %38

36:                                               ; preds = %35
  %37 = call zeroext i1 @errstart_cold(i32 noundef 21, ptr noundef null) #11
  br i1 %37, label %40, label %42

38:                                               ; preds = %35
  %39 = call zeroext i1 @errstart(i32 noundef 21, ptr noundef null)
  br i1 %39, label %40, label %42

40:                                               ; preds = %38, %36
  %41 = call i32 (ptr, ...) @errmsg_internal(ptr noundef @.str.7)
  call void @errfinish(ptr noundef @.str.1, i32 noundef 3143, ptr noundef @__func__.simple_heap_delete)
  br label %42

42:                                               ; preds = %40, %38, %36
  unreachable

43:                                               ; No predecessors!
  br label %44

44:                                               ; preds = %43
  br label %57

45:                                               ; preds = %2
  br label %46

46:                                               ; preds = %45
  br i1 true, label %47, label %49

47:                                               ; preds = %46
  %48 = call zeroext i1 @errstart_cold(i32 noundef 21, ptr noundef null) #11
  br i1 %48, label %51, label %54

49:                                               ; preds = %46
  %50 = call zeroext i1 @errstart(i32 noundef 21, ptr noundef null)
  br i1 %50, label %51, label %54

51:                                               ; preds = %49, %47
  %52 = load i32, ptr %5, align 4
  %53 = call i32 (ptr, ...) @errmsg_internal(ptr noundef @.str.8, i32 noundef %52)
  call void @errfinish(ptr noundef @.str.1, i32 noundef 3147, ptr noundef @__func__.simple_heap_delete)
  br label %54

54:                                               ; preds = %51, %49, %47
  unreachable

55:                                               ; No predecessors!
  br label %56

56:                                               ; preds = %55
  br label %57

57:                                               ; preds = %56, %44, %33, %2, %22
  call void @llvm.lifetime.end.p0(i64 20, ptr %6) #10
  call void @llvm.lifetime.end.p0(i64 4, ptr %5) #10
  ret void
}