; Function Attrs: nounwind uwtable
define dso_local void @simple_heap_delete(ptr noundef %0, ptr noundef %1) local_unnamed_addr #2 {
  %3 = alloca %struct.TM_FailureData, align 4
  call void @llvm.lifetime.start.p0(i64 20, ptr nonnull %3) #13
  %4 = tail call i32 @GetCurrentCommandId(i1 noundef zeroext true) #13
  %5 = call i32 @heap_delete(ptr noundef %0, ptr noundef %1, i32 noundef %4, ptr noundef null, i1 noundef zeroext true, ptr noundef nonnull %3, i1 noundef zeroext false)
  switch i32 %5, label %15 [
    i32 2, label %6
    i32 0, label %18
    i32 3, label %9
    i32 4, label %12
  ]

6:                                                ; preds = %2
  %7 = tail call zeroext i1 @errstart_cold(i32 noundef 21, ptr noundef null) #14
  tail call void @llvm.assume(i1 %7)
  %8 = tail call i32 (ptr, ...) @errmsg_internal(ptr noundef nonnull @.str.5) #13
  tail call void @errfinish(ptr noundef nonnull @.str.1, i32 noundef 3131, ptr noundef nonnull @__func__.simple_heap_delete) #13
  unreachable

9:                                                ; preds = %2
  %10 = tail call zeroext i1 @errstart_cold(i32 noundef 21, ptr noundef null) #14
  tail call void @llvm.assume(i1 %10)
  %11 = tail call i32 (ptr, ...) @errmsg_internal(ptr noundef nonnull @.str.6) #13
  tail call void @errfinish(ptr noundef nonnull @.str.1, i32 noundef 3139, ptr noundef nonnull @__func__.simple_heap_delete) #13
  unreachable

12:                                               ; preds = %2
  %13 = tail call zeroext i1 @errstart_cold(i32 noundef 21, ptr noundef null) #14
  tail call void @llvm.assume(i1 %13)
  %14 = tail call i32 (ptr, ...) @errmsg_internal(ptr noundef nonnull @.str.7) #13
  tail call void @errfinish(ptr noundef nonnull @.str.1, i32 noundef 3143, ptr noundef nonnull @__func__.simple_heap_delete) #13
  unreachable

15:                                               ; preds = %2
  %16 = tail call zeroext i1 @errstart_cold(i32 noundef 21, ptr noundef null) #14
  tail call void @llvm.assume(i1 %16)
  %17 = tail call i32 (ptr, ...) @errmsg_internal(ptr noundef nonnull @.str.8, i32 noundef %5) #13
  tail call void @errfinish(ptr noundef nonnull @.str.1, i32 noundef 3147, ptr noundef nonnull @__func__.simple_heap_delete) #13
  unreachable

18:                                               ; preds = %2
  call void @llvm.lifetime.end.p0(i64 20, ptr nonnull %3) #13
  ret void
}